(lp1
(I01
S'Polygonal lens configuration'
S'GllPolygonalLenses'
p2
(dp3
S'region_radius'
p4
F1.2
sS'total_mass'
p5
F2.9999999999999969
sS'angle'
p6
F0
sS'num_stars'
p7
I5
stp8
a(I01
S'Magnification pattern'
p9
S'GllRayshooter'
p10
(dp11
S'num_threads'
p12
I2
sS'xpixels'
p13
I1024
sS'kernel'
p14
I2
sS'density'
p15
F100
sS'ypixels'
p16
I1024
sS'export_region'
p17
I00
stp18
a.I1
.