(lp1
(I01
S'Polygonal lens configuration'
S'GllPolygonalLenses'
p2
(dp3
S'region_radius'
p4
F1.2
sS'region'
p5
(dp6
S'radius'
p7
F1.2
ssS'total_mass'
p8
F2.9999999999999969
sS'angle'
p9
F0
sS'num_stars'
p10
I5
stp11
a(I01
S'Magnification pattern'
p12
S'GllRayshooter'
p13
(dp14
S'kernel'
p15
S'triangulated'
p16
sS'num_threads'
p17
I2
sS'xpixels'
p18
I1024
sS'density'
p19
F100
sS'export_region'
p20
I00
sS'ypixels'
p21
I1024
stp22
a.I1
.