(lp1
(I01
S'Polygonal lens configuration'
S'GllPolygonalLenses'
p2
(dp3
S'region'
p4
(dp5
S'radius'
p6
F1.2
ssS'total_mass'
p7
F2.9999999999999969
sS'angle'
p8
F0
sS'num_stars'
p9
I5
stp10
a(I01
S'Magnification pattern'
p11
S'GllRayshooter'
p12
(dp13
S'kernel'
p14
S'triangulated'
p15
sS'num_threads'
p16
I2
sS'xpixels'
p17
I1024
sS'density'
p18
F100
sS'export_region'
p19
I00
sS'ypixels'
p20
I1024
stp21
a.I1
.